target datalayout = "e-m:e-p270:32:32-p271:32:32-p272:64:64-i64:64-i128:128-f80:128-n8:16:32:64-S128"
target triple = "x86_64-unknown-linux-gnu"

%"class.icu_75::LocalUResourceBundlePointer" = type { %"class.icu_75::LocalPointerBase" }
%"class.icu_75::LocalPointerBase" = type { ptr }
%"class.icu_75::UnicodeString" = type { %"class.icu_75::Replaceable", %"union.icu_75::UnicodeString::StackBufferOrFields" }
%"class.icu_75::Replaceable" = type { %"class.icu_75::UObject" }
%"class.icu_75::UObject" = type { ptr }
%"union.icu_75::UnicodeString::StackBufferOrFields" = type { %struct.anon.0, [32 x i8] }
%struct.anon.0 = type { i16, i32, i32, ptr }

@.str = private unnamed_addr constant [14 x i8] c"icudt75l-coll\00", align 1
@.str.3 = private unnamed_addr constant [11 x i8] c"collations\00", align 1
@.str.4 = private unnamed_addr constant [9 x i8] c"Sequence\00", align 1

; Function Attrs: mustprogress nounwind uwtable
define linkonce_odr noundef i32 @_ZNK6icu_7513UnicodeString14getShortLengthEv(ptr noundef nonnull align 8 dereferenceable(64) %this) #0 comdat align 2 {
entry:
  %this.addr = alloca ptr, align 8
  store ptr %this, ptr %this.addr, align 8
  %this1 = load ptr, ptr %this.addr, align 8
  %fUnion = getelementptr inbounds %"class.icu_75::UnicodeString", ptr %this1, i32 0, i32 1
  %fLengthAndFlags = getelementptr inbounds %struct.anon.0, ptr %fUnion, i32 0, i32 0
  %0 = load i16, ptr %fLengthAndFlags, align 8
  %conv = sext i16 %0 to i32
  %shr = ashr i32 %conv, 5
  ret i32 %shr
}

; Function Attrs: mustprogress nounwind uwtable
define linkonce_odr noundef signext i8 @_ZNK6icu_7513UnicodeString14hasShortLengthEv(ptr noundef nonnull align 8 dereferenceable(64) %this) #0 comdat align 2 {
entry:
  %this.addr = alloca ptr, align 8
  store ptr %this, ptr %this.addr, align 8
  %this1 = load ptr, ptr %this.addr, align 8
  %fUnion = getelementptr inbounds %"class.icu_75::UnicodeString", ptr %this1, i32 0, i32 1
  %fLengthAndFlags = getelementptr inbounds %struct.anon.0, ptr %fUnion, i32 0, i32 0
  %0 = load i16, ptr %fLengthAndFlags, align 8
  %conv = sext i16 %0 to i32
  %cmp = icmp sge i32 %conv, 0
  %conv2 = zext i1 %cmp to i8
  ret i8 %conv2
}

; Function Attrs: mustprogress uwtable
define linkonce_odr noundef i32 @_ZNK6icu_7513UnicodeString6lengthEv(ptr noundef nonnull align 8 dereferenceable(64) %this) #1 comdat align 2 {
entry:
  %this.addr = alloca ptr, align 8
  store ptr %this, ptr %this.addr, align 8
  %this1 = load ptr, ptr %this.addr, align 8
  %call = call noundef signext i8 @_ZNK6icu_7513UnicodeString14hasShortLengthEv(ptr noundef nonnull align 8 dereferenceable(64) %this1)
  %tobool = icmp ne i8 %call, 0
  br i1 %tobool, label %cond.true, label %cond.false

cond.true:                                        ; preds = %entry
  %call2 = call noundef i32 @_ZNK6icu_7513UnicodeString14getShortLengthEv(ptr noundef nonnull align 8 dereferenceable(64) %this1)
  br label %cond.end

cond.false:                                       ; preds = %entry
  %fUnion = getelementptr inbounds %"class.icu_75::UnicodeString", ptr %this1, i32 0, i32 1
  %fLength = getelementptr inbounds %struct.anon.0, ptr %fUnion, i32 0, i32 1
  %0 = load i32, ptr %fLength, align 4
  br label %cond.end

cond.end:                                         ; preds = %cond.false, %cond.true
  %cond = phi i32 [ %call2, %cond.true ], [ %0, %cond.false ]
  ret i32 %cond
}

; Function Attrs: mustprogress nounwind uwtable
define linkonce_odr void @_ZN6icu_7516LocalPointerBaseI15UResourceBundleEC2EPS1_(ptr noundef nonnull align 8 dereferenceable(8) %this, ptr noundef %p) unnamed_addr #0 comdat align 2 {
entry:
  %this.addr = alloca ptr, align 8
  %p.addr = alloca ptr, align 8
  store ptr %this, ptr %this.addr, align 8
  store ptr %p, ptr %p.addr, align 8
  %this1 = load ptr, ptr %this.addr, align 8
  %ptr = getelementptr inbounds %"class.icu_75::LocalPointerBase", ptr %this1, i32 0, i32 0
  %0 = load ptr, ptr %p.addr, align 8
  store ptr %0, ptr %ptr, align 8
  ret void
}

; Function Attrs: mustprogress nounwind uwtable
define linkonce_odr noundef signext i8 @_ZNK6icu_7513UnicodeString7isBogusEv(ptr noundef nonnull align 8 dereferenceable(64) %this) #0 comdat align 2 {
entry:
  %this.addr = alloca ptr, align 8
  store ptr %this, ptr %this.addr, align 8
  %this1 = load ptr, ptr %this.addr, align 8
  %fUnion = getelementptr inbounds %"class.icu_75::UnicodeString", ptr %this1, i32 0, i32 1
  %fLengthAndFlags = getelementptr inbounds %struct.anon.0, ptr %fUnion, i32 0, i32 0
  %0 = load i16, ptr %fLengthAndFlags, align 8
  %conv = sext i16 %0 to i32
  %and = and i32 %conv, 1
  %conv2 = trunc i32 %and to i8
  ret i8 %conv2
}

; Function Attrs: mustprogress uwtable
define linkonce_odr noundef nonnull align 8 dereferenceable(64) ptr @_ZN6icu_7513UnicodeString5setToEPKDsi(ptr noundef nonnull align 8 dereferenceable(64) %this, ptr noundef %srcChars, i32 noundef %srcLength) #1 comdat align 2 {
entry:
  %this.addr = alloca ptr, align 8
  %srcChars.addr = alloca ptr, align 8
  %srcLength.addr = alloca i32, align 4
  store ptr %this, ptr %this.addr, align 8
  store ptr %srcChars, ptr %srcChars.addr, align 8
  store i32 %srcLength, ptr %srcLength.addr, align 4
  %this1 = load ptr, ptr %this.addr, align 8
  call void @_ZN6icu_7513UnicodeString7unBogusEv(ptr noundef nonnull align 8 dereferenceable(64) %this1)
  %call = call noundef i32 @_ZNK6icu_7513UnicodeString6lengthEv(ptr noundef nonnull align 8 dereferenceable(64) %this1)
  %0 = load ptr, ptr %srcChars.addr, align 8
  %1 = load i32, ptr %srcLength.addr, align 4
  %call2 = call noundef nonnull align 8 dereferenceable(64) ptr @_ZN6icu_7513UnicodeString9doReplaceEiiPKDsii(ptr noundef nonnull align 8 dereferenceable(64) %this1, i32 noundef 0, i32 noundef %call, ptr noundef %0, i32 noundef 0, i32 noundef %1)
  ret ptr %call2
}

; Function Attrs: mustprogress nounwind uwtable
define linkonce_odr noundef ptr @_ZNK6icu_7516LocalPointerBaseI15UResourceBundleE8getAliasEv(ptr noundef nonnull align 8 dereferenceable(8) %this) #0 comdat align 2 {
entry:
  %this.addr = alloca ptr, align 8
  store ptr %this, ptr %this.addr, align 8
  %this1 = load ptr, ptr %this.addr, align 8
  %ptr = getelementptr inbounds %"class.icu_75::LocalPointerBase", ptr %this1, i32 0, i32 0
  %0 = load ptr, ptr %ptr, align 8
  ret ptr %0
}

; Function Attrs: mustprogress uwtable
define linkonce_odr void @_ZN6icu_7527LocalUResourceBundlePointerC2EP15UResourceBundle(ptr noundef nonnull align 8 dereferenceable(8) %this, ptr noundef %p) unnamed_addr #1 comdat align 2 {
entry:
  %this.addr = alloca ptr, align 8
  %p.addr = alloca ptr, align 8
  store ptr %this, ptr %this.addr, align 8
  store ptr %p, ptr %p.addr, align 8
  %this1 = load ptr, ptr %this.addr, align 8
  %0 = load ptr, ptr %p.addr, align 8
  call void @_ZN6icu_7516LocalPointerBaseI15UResourceBundleEC2EPS1_(ptr noundef nonnull align 8 dereferenceable(8) %this1, ptr noundef %0)
  ret void
}

; Function Attrs: mustprogress nounwind uwtable
define internal noundef signext i8 @_ZL9U_FAILURE10UErrorCode(i32 noundef %code) #0 {
entry:
  %code.addr = alloca i32, align 4
  store i32 %code, ptr %code.addr, align 4
  %0 = load i32, ptr %code.addr, align 4
  %cmp = icmp sgt i32 %0, 0
  %conv = zext i1 %cmp to i8
  ret i8 %conv
}

; Function Attrs: mustprogress uwtable
define void @_ZN6icu_7515CollationLoader9loadRulesEPKcS2_RNS_13UnicodeStringER10UErrorCode(ptr noundef %localeID, ptr noundef %collationType, ptr noundef nonnull align 8 dereferenceable(64) %rules, ptr noundef nonnull align 4 dereferenceable(4) %errorCode) #1 align 2 personality ptr @__gxx_personality_v0 {
entry:
  %localeID.addr = alloca ptr, align 8
  %collationType.addr = alloca ptr, align 8
  %rules.addr = alloca ptr, align 8
  %errorCode.addr = alloca ptr, align 8
  %type = alloca [16 x i8], align 16
  %typeLength = alloca i32, align 4
  %bundle = alloca %"class.icu_75::LocalUResourceBundlePointer", align 8
  %collations = alloca %"class.icu_75::LocalUResourceBundlePointer", align 8
  %exn.slot = alloca ptr, align 8
  %ehselector.slot = alloca i32, align 4
  %data = alloca %"class.icu_75::LocalUResourceBundlePointer", align 8
  %length = alloca i32, align 4
  %s = alloca ptr, align 8
  %cleanup.dest.slot = alloca i32, align 4
  store ptr %localeID, ptr %localeID.addr, align 8
  store ptr %collationType, ptr %collationType.addr, align 8
  store ptr %rules, ptr %rules.addr, align 8
  store ptr %errorCode, ptr %errorCode.addr, align 8
  %0 = load ptr, ptr %errorCode.addr, align 8
  %1 = load i32, ptr %0, align 4
  %call = call noundef signext i8 @_ZL9U_FAILURE10UErrorCode(i32 noundef %1)
  %tobool = icmp ne i8 %call, 0
  br i1 %tobool, label %if.then, label %if.end

if.then:                                          ; preds = %entry
  br label %cleanup.cont

if.end:                                           ; preds = %entry
  %2 = load ptr, ptr %collationType.addr, align 8
  %call1 = call i64 @strlen(ptr noundef %2) #12
  %conv = trunc i64 %call1 to i32
  store i32 %conv, ptr %typeLength, align 4
  %3 = load i32, ptr %typeLength, align 4
  %cmp = icmp sge i32 %3, 16
  br i1 %cmp, label %if.then2, label %if.end3

if.then2:                                         ; preds = %if.end
  %4 = load ptr, ptr %errorCode.addr, align 8
  store i32 1, ptr %4, align 4
  br label %cleanup.cont

if.end3:                                          ; preds = %if.end
  br label %do.body

do.body:                                          ; preds = %if.end3
  %arraydecay = getelementptr inbounds [16 x i8], ptr %type, i64 0, i64 0
  %5 = load ptr, ptr %collationType.addr, align 8
  %6 = load i32, ptr %typeLength, align 4
  %add = add nsw i32 %6, 1
  %conv4 = sext i32 %add to i64
  call void @llvm.memcpy.p0.p0.i64(ptr align 16 %arraydecay, ptr align 1 %5, i64 %conv4, i1 false)
  br label %do.end

do.end:                                           ; preds = %do.body
  %arraydecay5 = getelementptr inbounds [16 x i8], ptr %type, i64 0, i64 0
  %call6 = call ptr @T_CString_toLowerCase_75(ptr noundef %arraydecay5)
  %7 = load ptr, ptr %localeID.addr, align 8
  %8 = load ptr, ptr %errorCode.addr, align 8
  %call7 = call ptr @ures_open_75(ptr noundef @.str, ptr noundef %7, ptr noundef %8)
  call void @_ZN6icu_7527LocalUResourceBundlePointerC2EP15UResourceBundle(ptr noundef nonnull align 8 dereferenceable(8) %bundle, ptr noundef %call7)
  %call8 = invoke noundef ptr @_ZNK6icu_7516LocalPointerBaseI15UResourceBundleE8getAliasEv(ptr noundef nonnull align 8 dereferenceable(8) %bundle)
          to label %invoke.cont unwind label %lpad

invoke.cont:                                      ; preds = %do.end
  %9 = load ptr, ptr %errorCode.addr, align 8
  %call10 = invoke ptr @ures_getByKey_75(ptr noundef %call8, ptr noundef @.str.3, ptr noundef null, ptr noundef %9)
          to label %invoke.cont9 unwind label %lpad

invoke.cont9:                                     ; preds = %invoke.cont
  invoke void @_ZN6icu_7527LocalUResourceBundlePointerC2EP15UResourceBundle(ptr noundef nonnull align 8 dereferenceable(8) %collations, ptr noundef %call10)
          to label %invoke.cont11 unwind label %lpad

invoke.cont11:                                    ; preds = %invoke.cont9
  %call14 = invoke noundef ptr @_ZNK6icu_7516LocalPointerBaseI15UResourceBundleE8getAliasEv(ptr noundef nonnull align 8 dereferenceable(8) %collations)
          to label %invoke.cont13 unwind label %lpad12

invoke.cont13:                                    ; preds = %invoke.cont11
  %arraydecay15 = getelementptr inbounds [16 x i8], ptr %type, i64 0, i64 0
  %10 = load ptr, ptr %errorCode.addr, align 8
  %call17 = invoke ptr @ures_getByKeyWithFallback_75(ptr noundef %call14, ptr noundef %arraydecay15, ptr noundef null, ptr noundef %10)
          to label %invoke.cont16 unwind label %lpad12

invoke.cont16:                                    ; preds = %invoke.cont13
  invoke void @_ZN6icu_7527LocalUResourceBundlePointerC2EP15UResourceBundle(ptr noundef nonnull align 8 dereferenceable(8) %data, ptr noundef %call17)
          to label %invoke.cont18 unwind label %lpad12

invoke.cont18:                                    ; preds = %invoke.cont16
  %call21 = invoke noundef ptr @_ZNK6icu_7516LocalPointerBaseI15UResourceBundleE8getAliasEv(ptr noundef nonnull align 8 dereferenceable(8) %data)
          to label %invoke.cont20 unwind label %lpad19

invoke.cont20:                                    ; preds = %invoke.cont18
  %11 = load ptr, ptr %errorCode.addr, align 8
  %call23 = invoke ptr @ures_getStringByKey_75(ptr noundef %call21, ptr noundef @.str.4, ptr noundef %length, ptr noundef %11)
          to label %invoke.cont22 unwind label %lpad19

invoke.cont22:                                    ; preds = %invoke.cont20
  store ptr %call23, ptr %s, align 8
  %12 = load ptr, ptr %errorCode.addr, align 8
  %13 = load i32, ptr %12, align 4
  %call25 = invoke noundef signext i8 @_ZL9U_FAILURE10UErrorCode(i32 noundef %13)
          to label %invoke.cont24 unwind label %lpad19

invoke.cont24:                                    ; preds = %invoke.cont22
  %tobool26 = icmp ne i8 %call25, 0
  br i1 %tobool26, label %if.then27, label %if.end28

if.then27:                                        ; preds = %invoke.cont24
  store i32 1, ptr %cleanup.dest.slot, align 4
  br label %cleanup

lpad:                                             ; preds = %invoke.cont9, %invoke.cont, %do.end
  %14 = landingpad { ptr, i32 }
          cleanup
  %15 = extractvalue { ptr, i32 } %14, 0
  store ptr %15, ptr %exn.slot, align 8
  %16 = extractvalue { ptr, i32 } %14, 1
  store i32 %16, ptr %ehselector.slot, align 4
  br label %ehcleanup38

lpad12:                                           ; preds = %invoke.cont16, %invoke.cont13, %invoke.cont11
  %17 = landingpad { ptr, i32 }
          cleanup
  %18 = extractvalue { ptr, i32 } %17, 0
  store ptr %18, ptr %exn.slot, align 8
  %19 = extractvalue { ptr, i32 } %17, 1
  store i32 %19, ptr %ehselector.slot, align 4
  br label %ehcleanup

lpad19:                                           ; preds = %invoke.cont29, %if.end28, %invoke.cont22, %invoke.cont20, %invoke.cont18
  %20 = landingpad { ptr, i32 }
          cleanup
  %21 = extractvalue { ptr, i32 } %20, 0
  store ptr %21, ptr %exn.slot, align 8
  %22 = extractvalue { ptr, i32 } %20, 1
  store i32 %22, ptr %ehselector.slot, align 4
  call void @_ZN6icu_7527LocalUResourceBundlePointerD2Ev(ptr noundef nonnull align 8 dereferenceable(8) %data) #9
  br label %ehcleanup

if.end28:                                         ; preds = %invoke.cont24
  %23 = load ptr, ptr %rules.addr, align 8
  %24 = load ptr, ptr %s, align 8
  %25 = load i32, ptr %length, align 4
  %call30 = invoke noundef nonnull align 8 dereferenceable(64) ptr @_ZN6icu_7513UnicodeString5setToEPKDsi(ptr noundef nonnull align 8 dereferenceable(64) %23, ptr noundef %24, i32 noundef %25)
          to label %invoke.cont29 unwind label %lpad19

invoke.cont29:                                    ; preds = %if.end28
  %26 = load ptr, ptr %rules.addr, align 8
  %call32 = invoke noundef signext i8 @_ZNK6icu_7513UnicodeString7isBogusEv(ptr noundef nonnull align 8 dereferenceable(64) %26)
          to label %invoke.cont31 unwind label %lpad19

invoke.cont31:                                    ; preds = %invoke.cont29
  %tobool33 = icmp ne i8 %call32, 0
  br i1 %tobool33, label %if.then34, label %if.end35

if.then34:                                        ; preds = %invoke.cont31
  %27 = load ptr, ptr %errorCode.addr, align 8
  store i32 7, ptr %27, align 4
  br label %if.end35

if.end35:                                         ; preds = %if.then34, %invoke.cont31
  store i32 0, ptr %cleanup.dest.slot, align 4
  br label %cleanup

cleanup:                                          ; preds = %if.end35, %if.then27
  call void @_ZN6icu_7527LocalUResourceBundlePointerD2Ev(ptr noundef nonnull align 8 dereferenceable(8) %data) #9
  call void @_ZN6icu_7527LocalUResourceBundlePointerD2Ev(ptr noundef nonnull align 8 dereferenceable(8) %collations) #9
  call void @_ZN6icu_7527LocalUResourceBundlePointerD2Ev(ptr noundef nonnull align 8 dereferenceable(8) %bundle) #9
  %cleanup.dest = load i32, ptr %cleanup.dest.slot, align 4
  switch i32 %cleanup.dest, label %unreachable [
    i32 0, label %cleanup.cont
    i32 1, label %cleanup.cont
  ]

cleanup.cont:                                     ; preds = %cleanup, %cleanup, %if.then2, %if.then
  ret void

ehcleanup:                                        ; preds = %lpad19, %lpad12
  call void @_ZN6icu_7527LocalUResourceBundlePointerD2Ev(ptr noundef nonnull align 8 dereferenceable(8) %collations) #9
  br label %ehcleanup38

ehcleanup38:                                      ; preds = %ehcleanup, %lpad
  call void @_ZN6icu_7527LocalUResourceBundlePointerD2Ev(ptr noundef nonnull align 8 dereferenceable(8) %bundle) #9
  br label %eh.resume

eh.resume:                                        ; preds = %ehcleanup38
  %exn = load ptr, ptr %exn.slot, align 8
  %sel = load i32, ptr %ehselector.slot, align 4
  %lpad.val = insertvalue { ptr, i32 } poison, ptr %exn, 0
  %lpad.val39 = insertvalue { ptr, i32 } %lpad.val, i32 %sel, 1
  resume { ptr, i32 } %lpad.val39

unreachable:                                      ; preds = %cleanup
  unreachable
}