; Function Attrs: mustprogress uwtable
define void @_ZN6icu_7515CollationLoader9loadRulesEPKcS2_RNS_13UnicodeStringER10UErrorCode(ptr noundef %localeID, ptr nocapture noundef readonly %collationType, ptr noundef nonnull align 8 dereferenceable(64) %rules, ptr noundef nonnull align 4 dereferenceable(4) %errorCode) local_unnamed_addr #1 align 2 personality ptr @__gxx_personality_v0 {
entry:
  %type = alloca [16 x i8], align 16
  %bundle = alloca %"class.icu_75::LocalUResourceBundlePointer", align 8
  %collations = alloca %"class.icu_75::LocalUResourceBundlePointer", align 8
  %data = alloca %"class.icu_75::LocalUResourceBundlePointer", align 8
  %length = alloca i32, align 4
  %0 = load i32, ptr %errorCode, align 4
  %cmp.i = icmp slt i32 %0, 1
  br i1 %cmp.i, label %if.end, label %cleanup.cont

if.end:                                           ; preds = %entry
  %call1 = tail call i64 @strlen(ptr noundef nonnull dereferenceable(1) %collationType) #16
  %conv = trunc i64 %call1 to i32
  %cmp = icmp sgt i32 %conv, 15
  br i1 %cmp, label %if.then2, label %do.body

if.then2:                                         ; preds = %if.end
  store i32 1, ptr %errorCode, align 4
  br label %cleanup.cont

do.body:                                          ; preds = %if.end
  %add = shl i64 %call1, 32
  %sext = add i64 %add, 4294967296
  %conv4 = ashr exact i64 %sext, 32
  call void @llvm.memcpy.p0.p0.i64(ptr nonnull align 16 %type, ptr align 1 %collationType, i64 %conv4, i1 false)
  %call6 = call ptr @T_CString_toLowerCase_75(ptr noundef nonnull %type)
  %call7 = call ptr @ures_open_75(ptr noundef nonnull @.str, ptr noundef %localeID, ptr noundef nonnull %errorCode)
  store ptr %call7, ptr %bundle, align 8
  %call10 = invoke ptr @ures_getByKey_75(ptr noundef %call7, ptr noundef nonnull @.str.3, ptr noundef null, ptr noundef nonnull %errorCode)
          to label %invoke.cont11 unwind label %lpad

invoke.cont11:                                    ; preds = %do.body
  store ptr %call10, ptr %collations, align 8
  %call17 = invoke ptr @ures_getByKeyWithFallback_75(ptr noundef %call10, ptr noundef nonnull %type, ptr noundef null, ptr noundef nonnull %errorCode)
          to label %invoke.cont18 unwind label %lpad12

invoke.cont18:                                    ; preds = %invoke.cont11
  store ptr %call17, ptr %data, align 8
  %call23 = invoke ptr @ures_getStringByKey_75(ptr noundef %call17, ptr noundef nonnull @.str.4, ptr noundef nonnull %length, ptr noundef nonnull %errorCode)
          to label %invoke.cont22 unwind label %lpad19

invoke.cont22:                                    ; preds = %invoke.cont18
  %1 = load i32, ptr %errorCode, align 4
  %cmp.i13 = icmp slt i32 %1, 1
  br i1 %cmp.i13, label %if.end28, label %cleanup

lpad:                                             ; preds = %do.body
  %2 = landingpad { ptr, i32 }
          cleanup
  br label %ehcleanup38

lpad12:                                           ; preds = %invoke.cont11
  %3 = landingpad { ptr, i32 }
          cleanup
  br label %ehcleanup

lpad19:                                           ; preds = %.noexc, %if.end28, %invoke.cont18
  %4 = landingpad { ptr, i32 }
          cleanup
  call void @_ZN6icu_7527LocalUResourceBundlePointerD2Ev(ptr noundef nonnull align 8 dereferenceable(8) %data) #13
  br label %ehcleanup

if.end28:                                         ; preds = %invoke.cont22
  %5 = load i32, ptr %length, align 4
  invoke void @_ZN6icu_7513UnicodeString7unBogusEv(ptr noundef nonnull align 8 dereferenceable(64) %rules)
          to label %.noexc unwind label %lpad19

.noexc:                                           ; preds = %if.end28
  %fUnion.i.i.i = getelementptr inbounds i8, ptr %rules, i64 8
  %6 = load i16, ptr %fUnion.i.i.i, align 8
  %cmp.i.i.i = icmp slt i16 %6, 0
  %7 = ashr i16 %6, 5
  %shr.i.i.i = sext i16 %7 to i32
  %fLength.i.i = getelementptr inbounds i8, ptr %rules, i64 12
  %8 = load i32, ptr %fLength.i.i, align 4
  %cond.i.i = select i1 %cmp.i.i.i, i32 %8, i32 %shr.i.i.i
  %call2.i15 = invoke noundef nonnull align 8 dereferenceable(64) ptr @_ZN6icu_7513UnicodeString9doReplaceEiiPKDsii(ptr noundef nonnull align 8 dereferenceable(64) %rules, i32 noundef 0, i32 noundef %cond.i.i, ptr noundef %call23, i32 noundef 0, i32 noundef %5)
          to label %invoke.cont29 unwind label %lpad19

invoke.cont29:                                    ; preds = %.noexc
  %9 = load i16, ptr %fUnion.i.i.i, align 8
  %conv2.i24 = and i16 %9, 1
  %tobool33.not = icmp eq i16 %conv2.i24, 0
  br i1 %tobool33.not, label %cleanup, label %if.then34

if.then34:                                        ; preds = %invoke.cont29
  store i32 7, ptr %errorCode, align 4
  br label %cleanup

cleanup:                                          ; preds = %invoke.cont29, %if.then34, %invoke.cont22
  %cmp.not.i = icmp eq ptr %call17, null
  br i1 %cmp.not.i, label %_ZN6icu_7527LocalUResourceBundlePointerD2Ev.exit, label %if.then.i

if.then.i:                                        ; preds = %cleanup
  invoke void @ures_close_75(ptr noundef nonnull %call17)
          to label %_ZN6icu_7527LocalUResourceBundlePointerD2Ev.exit unwind label %terminate.lpad.i

terminate.lpad.i:                                 ; preds = %if.then.i
  %10 = landingpad { ptr, i32 }
          catch ptr null
  %11 = extractvalue { ptr, i32 } %10, 0
  call void @__clang_call_terminate(ptr %11) #15
  unreachable

_ZN6icu_7527LocalUResourceBundlePointerD2Ev.exit: ; preds = %cleanup, %if.then.i
  %cmp.not.i16 = icmp eq ptr %call10, null
  br i1 %cmp.not.i16, label %_ZN6icu_7527LocalUResourceBundlePointerD2Ev.exit19, label %if.then.i17

if.then.i17:                                      ; preds = %_ZN6icu_7527LocalUResourceBundlePointerD2Ev.exit
  invoke void @ures_close_75(ptr noundef nonnull %call10)
          to label %_ZN6icu_7527LocalUResourceBundlePointerD2Ev.exit19 unwind label %terminate.lpad.i18

terminate.lpad.i18:                               ; preds = %if.then.i17
  %12 = landingpad { ptr, i32 }
          catch ptr null
  %13 = extractvalue { ptr, i32 } %12, 0
  call void @__clang_call_terminate(ptr %13) #15
  unreachable

_ZN6icu_7527LocalUResourceBundlePointerD2Ev.exit19: ; preds = %_ZN6icu_7527LocalUResourceBundlePointerD2Ev.exit, %if.then.i17
  %cmp.not.i20 = icmp eq ptr %call7, null
  br i1 %cmp.not.i20, label %cleanup.cont, label %if.then.i21

if.then.i21:                                      ; preds = %_ZN6icu_7527LocalUResourceBundlePointerD2Ev.exit19
  invoke void @ures_close_75(ptr noundef nonnull %call7)
          to label %cleanup.cont unwind label %terminate.lpad.i22

terminate.lpad.i22:                               ; preds = %if.then.i21
  %14 = landingpad { ptr, i32 }
          catch ptr null
  %15 = extractvalue { ptr, i32 } %14, 0
  call void @__clang_call_terminate(ptr %15) #15
  unreachable

cleanup.cont:                                     ; preds = %if.then.i21, %_ZN6icu_7527LocalUResourceBundlePointerD2Ev.exit19, %entry, %if.then2
  ret void

ehcleanup:                                        ; preds = %lpad19, %lpad12
  %.pn = phi { ptr, i32 } [ %4, %lpad19 ], [ %3, %lpad12 ]
  call void @_ZN6icu_7527LocalUResourceBundlePointerD2Ev(ptr noundef nonnull align 8 dereferenceable(8) %collations) #13
  br label %ehcleanup38

ehcleanup38:                                      ; preds = %ehcleanup, %lpad
  %.pn.pn = phi { ptr, i32 } [ %.pn, %ehcleanup ], [ %2, %lpad ]
  call void @_ZN6icu_7527LocalUResourceBundlePointerD2Ev(ptr noundef nonnull align 8 dereferenceable(8) %bundle) #13
  resume { ptr, i32 } %.pn.pn
}